target datalayout = "e-m:e-p270:32:32-p271:32:32-p272:64:64-i64:64-i128:128-f80:128-n8:16:32:64-S128"
target triple = "x86_64-pc-linux-gnu"

%struct.json_dumper = type { ptr, ptr, i32, i32, i32, i32, [1100 x i8] }
%struct.nstime_t = type { i64, i32 }
%struct.sharkd_analyse_data = type { ptr, ptr, ptr }
%struct._frame_data = type <{ i32, i32, i32, i32, i32, [4 x i8], i64, ptr, ptr, ptr, i8, i16, [5 x i8], %struct.nstime_t, %struct.nstime_t, i32, i32 }>
%struct._address = type { i32, i32, ptr, ptr }
%struct.epan_dissect = type { ptr, ptr, ptr, %struct._packet_info }
%struct._packet_info = type { ptr, ptr, i32, i32, %struct.nstime_t, %struct.nstime_t, %struct.nstime_t, i8, ptr, ptr, ptr, ptr, %struct._address, %struct._address, %struct._address, %struct._address, %struct._address, %struct._address, i32, ptr, i8, [3 x i8], %struct.anon.4, i32, i32, i32, i32, ptr, i8, ptr, ptr, i16, i16, i32, i32, i16, i32, i32, ptr, ptr, ptr, i8, i8, i16, i16, i16, i32, i16, i16, ptr, ptr, ptr, ptr, ptr, i32, i32 }
%struct.anon.4 = type { i8, [3 x i8] }

@dumper = internal global %struct.json_dumper zeroinitializer, align 8

; Function Attrs: null_pointer_is_valid sspstrong uwtable
define internal void @sharkd_json_value_string(ptr noundef %0, ptr noundef %1) #0 {
  %3 = alloca ptr, align 8
  %4 = alloca ptr, align 8
  store ptr %0, ptr %3, align 8
  store ptr %1, ptr %4, align 8
  %5 = load ptr, ptr %3, align 8
  %6 = icmp ne ptr %5, null
  br i1 %6, label %7, label %9

7:                                                ; preds = %2
  %8 = load ptr, ptr %3, align 8
  call void @json_dumper_set_member_name(ptr noundef @dumper, ptr noundef %8)
  br label %9

9:                                                ; preds = %7, %2
  %10 = load ptr, ptr %4, align 8
  call void @json_dumper_value_string(ptr noundef @dumper, ptr noundef %10)
  ret void
}

; Function Attrs: null_pointer_is_valid sspstrong uwtable
define internal void @sharkd_session_process_analyse_cb(ptr noundef %0, ptr noundef %1, ptr noundef %2, ptr noundef %3, ptr noundef %4) #0 {
  %6 = alloca ptr, align 8
  %7 = alloca ptr, align 8
  %8 = alloca ptr, align 8
  %9 = alloca ptr, align 8
  %10 = alloca ptr, align 8
  %11 = alloca ptr, align 8
  %12 = alloca ptr, align 8
  %13 = alloca ptr, align 8
  %14 = alloca ptr, align 8
  %15 = alloca i32, align 4
  store ptr %0, ptr %6, align 8
  store ptr %1, ptr %7, align 8
  store ptr %2, ptr %8, align 8
  store ptr %3, ptr %9, align 8
  store ptr %4, ptr %10, align 8
  call void @llvm.lifetime.start.p0(i64 8, ptr %11) #21
  %16 = load ptr, ptr %10, align 8
  store ptr %16, ptr %11, align 8
  call void @llvm.lifetime.start.p0(i64 8, ptr %12) #21
  %17 = load ptr, ptr %6, align 8
  %18 = getelementptr inbounds nuw %struct.epan_dissect, ptr %17, i32 0, i32 3
  store ptr %18, ptr %12, align 8
  call void @llvm.lifetime.start.p0(i64 8, ptr %13) #21
  %19 = load ptr, ptr %12, align 8
  %20 = getelementptr inbounds nuw %struct._packet_info, ptr %19, i32 0, i32 8
  %21 = load ptr, ptr %20, align 8
  store ptr %21, ptr %13, align 8
  %22 = load ptr, ptr %11, align 8
  %23 = getelementptr inbounds nuw %struct.sharkd_analyse_data, ptr %22, i32 0, i32 1
  %24 = load ptr, ptr %23, align 8
  %25 = icmp eq ptr %24, null
  br i1 %25, label %34, label %26

26:                                               ; preds = %5
  %27 = load ptr, ptr %13, align 8
  %28 = getelementptr inbounds nuw %struct._frame_data, ptr %27, i32 0, i32 13
  %29 = load ptr, ptr %11, align 8
  %30 = getelementptr inbounds nuw %struct.sharkd_analyse_data, ptr %29, i32 0, i32 1
  %31 = load ptr, ptr %30, align 8
  %32 = call i32 @nstime_cmp(ptr noundef %28, ptr noundef %31)
  %33 = icmp slt i32 %32, 0
  br i1 %33, label %34, label %39

34:                                               ; preds = %26, %5
  %35 = load ptr, ptr %13, align 8
  %36 = getelementptr inbounds nuw %struct._frame_data, ptr %35, i32 0, i32 13
  %37 = load ptr, ptr %11, align 8
  %38 = getelementptr inbounds nuw %struct.sharkd_analyse_data, ptr %37, i32 0, i32 1
  store ptr %36, ptr %38, align 8
  br label %39

39:                                               ; preds = %34, %26
  %40 = load ptr, ptr %11, align 8
  %41 = getelementptr inbounds nuw %struct.sharkd_analyse_data, ptr %40, i32 0, i32 2
  %42 = load ptr, ptr %41, align 8
  %43 = icmp eq ptr %42, null
  br i1 %43, label %52, label %44

44:                                               ; preds = %39
  %45 = load ptr, ptr %13, align 8
  %46 = getelementptr inbounds nuw %struct._frame_data, ptr %45, i32 0, i32 13
  %47 = load ptr, ptr %11, align 8
  %48 = getelementptr inbounds nuw %struct.sharkd_analyse_data, ptr %47, i32 0, i32 2
  %49 = load ptr, ptr %48, align 8
  %50 = call i32 @nstime_cmp(ptr noundef %46, ptr noundef %49)
  %51 = icmp sgt i32 %50, 0
  br i1 %51, label %52, label %57

52:                                               ; preds = %44, %39
  %53 = load ptr, ptr %13, align 8
  %54 = getelementptr inbounds nuw %struct._frame_data, ptr %53, i32 0, i32 13
  %55 = load ptr, ptr %11, align 8
  %56 = getelementptr inbounds nuw %struct.sharkd_analyse_data, ptr %55, i32 0, i32 2
  store ptr %54, ptr %56, align 8
  br label %57

57:                                               ; preds = %52, %44
  %58 = load ptr, ptr %12, align 8
  %59 = getelementptr inbounds nuw %struct._packet_info, ptr %58, i32 0, i32 39
  %60 = load ptr, ptr %59, align 8
  %61 = icmp ne ptr %60, null
  br i1 %61, label %62, label %101

62:                                               ; preds = %57
  call void @llvm.lifetime.start.p0(i64 8, ptr %14) #21
  %63 = load ptr, ptr %12, align 8
  %64 = getelementptr inbounds nuw %struct._packet_info, ptr %63, i32 0, i32 39
  %65 = load ptr, ptr %64, align 8
  %66 = call ptr @wmem_list_head(ptr noundef %65)
  store ptr %66, ptr %14, align 8
  br label %67

67:                                               ; preds = %97, %62
  %68 = load ptr, ptr %14, align 8
  %69 = icmp ne ptr %68, null
  br i1 %69, label %70, label %100

70:                                               ; preds = %67
  call void @llvm.lifetime.start.p0(i64 4, ptr %15) #21
  %71 = load ptr, ptr %14, align 8
  %72 = call ptr @wmem_list_frame_data(ptr noundef %71)
  %73 = ptrtoint ptr %72 to i64
  %74 = trunc i64 %73 to i32
  store i32 %74, ptr %15, align 4
  %75 = load ptr, ptr %11, align 8
  %76 = getelementptr inbounds nuw %struct.sharkd_analyse_data, ptr %75, i32 0, i32 0
  %77 = load ptr, ptr %76, align 8
  %78 = load i32, ptr %15, align 4
  %79 = sext i32 %78 to i64
  %80 = inttoptr i64 %79 to ptr
  %81 = call i32 @g_hash_table_lookup_extended(ptr noundef %77, ptr noundef %80, ptr noundef null, ptr noundef null)
  %82 = icmp ne i32 %81, 0
  br i1 %82, label %96, label %83

83:                                               ; preds = %70
  %84 = load ptr, ptr %11, align 8
  %85 = getelementptr inbounds nuw %struct.sharkd_analyse_data, ptr %84, i32 0, i32 0
  %86 = load ptr, ptr %85, align 8
  %87 = load i32, ptr %15, align 4
  %88 = sext i32 %87 to i64
  %89 = inttoptr i64 %88 to ptr
  %90 = load i32, ptr %15, align 4
  %91 = sext i32 %90 to i64
  %92 = inttoptr i64 %91 to ptr
  %93 = call i32 @g_hash_table_insert(ptr noundef %86, ptr noundef %89, ptr noundef %92)
  %94 = load i32, ptr %15, align 4
  %95 = call ptr @proto_get_protocol_filter_name(i32 noundef %94)
  call void @sharkd_json_value_string(ptr noundef null, ptr noundef %95)
  br label %96

96:                                               ; preds = %83, %70
  call void @llvm.lifetime.end.p0(i64 4, ptr %15) #21
  br label %97

97:                                               ; preds = %96
  %98 = load ptr, ptr %14, align 8
  %99 = call ptr @wmem_list_frame_next(ptr noundef %98)
  store ptr %99, ptr %14, align 8
  br label %67, !llvm.loop !40

100:                                              ; preds = %67
  call void @llvm.lifetime.end.p0(i64 8, ptr %14) #21
  br label %101

101:                                              ; preds = %100, %57
  call void @llvm.lifetime.end.p0(i64 8, ptr %13) #21
  call void @llvm.lifetime.end.p0(i64 8, ptr %12) #21
  call void @llvm.lifetime.end.p0(i64 8, ptr %11) #21
  ret void
}