; Function Attrs: null_pointer_is_valid sspstrong uwtable
define internal void @sharkd_session_process_analyse_cb(ptr noundef readonly captures(none) %0, ptr readnone captures(none) %1, ptr readnone captures(none) %2, ptr readnone captures(none) %3, ptr noundef captures(none) %4) #0 {
  %6 = getelementptr inbounds nuw i8, ptr %0, i64 104
  %7 = load ptr, ptr %6, align 8
  %8 = getelementptr inbounds nuw i8, ptr %4, i64 8
  %9 = load ptr, ptr %8, align 8
  %10 = icmp eq ptr %9, null
  br i1 %10, label %15, label %11

11:                                               ; preds = %5
  %12 = getelementptr inbounds nuw i8, ptr %7, i64 64
  %13 = tail call i32 @nstime_cmp(ptr noundef nonnull %12, ptr noundef nonnull %9)
  %14 = icmp slt i32 %13, 0
  br i1 %14, label %15, label %17

15:                                               ; preds = %11, %5
  %16 = getelementptr inbounds nuw i8, ptr %7, i64 64
  store ptr %16, ptr %8, align 8
  br label %17

17:                                               ; preds = %15, %11
  %18 = getelementptr inbounds nuw i8, ptr %4, i64 16
  %19 = load ptr, ptr %18, align 8
  %20 = icmp eq ptr %19, null
  br i1 %20, label %25, label %21

21:                                               ; preds = %17
  %22 = getelementptr inbounds nuw i8, ptr %7, i64 64
  %23 = tail call i32 @nstime_cmp(ptr noundef nonnull %22, ptr noundef nonnull %19)
  %24 = icmp sgt i32 %23, 0
  br i1 %24, label %25, label %27

25:                                               ; preds = %21, %17
  %26 = getelementptr inbounds nuw i8, ptr %7, i64 64
  store ptr %26, ptr %18, align 8
  br label %27

27:                                               ; preds = %25, %21
  %28 = getelementptr inbounds nuw i8, ptr %0, i64 384
  %29 = load ptr, ptr %28, align 8
  %.not = icmp eq ptr %29, null
  br i1 %.not, label %.loopexit, label %30

30:                                               ; preds = %27
  %31 = tail call ptr @wmem_list_head(ptr noundef nonnull %29)
  %.not2628 = icmp eq ptr %31, null
  br i1 %.not2628, label %.loopexit, label %.lr.ph

.lr.ph:                                           ; preds = %30, %43
  %.029 = phi ptr [ %44, %43 ], [ %31, %30 ]
  %32 = tail call ptr @wmem_list_frame_data(ptr noundef nonnull %.029)
  %33 = ptrtoint ptr %32 to i64
  %34 = load ptr, ptr %4, align 8
  %sext = shl i64 %33, 32
  %35 = ashr exact i64 %sext, 32
  %36 = inttoptr i64 %35 to ptr
  %37 = tail call i32 @g_hash_table_lookup_extended(ptr noundef %34, ptr noundef %36, ptr noundef null, ptr noundef null)
  %.not27 = icmp eq i32 %37, 0
  br i1 %.not27, label %38, label %43

38:                                               ; preds = %.lr.ph
  %39 = trunc i64 %33 to i32
  %40 = load ptr, ptr %4, align 8
  %41 = tail call i32 @g_hash_table_insert(ptr noundef %40, ptr noundef %36, ptr noundef %36)
  %42 = tail call ptr @proto_get_protocol_filter_name(i32 noundef %39)
  tail call void @json_dumper_value_string(ptr noundef nonnull @dumper, ptr noundef %42)
  br label %43

43:                                               ; preds = %38, %.lr.ph
  %44 = tail call ptr @wmem_list_frame_next(ptr noundef nonnull %.029)
  %.not26 = icmp eq ptr %44, null
  br i1 %.not26, label %.loopexit, label %.lr.ph, !llvm.loop !45

.loopexit:                                        ; preds = %43, %30, %27
  ret void
}